target datalayout = "e-m:e-p270:32:32-p271:32:32-p272:64:64-i64:64-i128:128-f80:128-n8:16:32:64-S128"
target triple = "x86_64-unknown-linux-gnu"

%"class.hermes::Value" = type { i8, %"class.hermes::Type", %"class.llvh::SmallVector" }
%"class.hermes::Type" = type { i16, i16 }
%"class.llvh::SmallVector" = type { %"class.llvh::SmallVectorImpl", %"struct.llvh::SmallVectorStorage" }
%"class.llvh::SmallVectorImpl" = type { %"class.llvh::SmallVectorTemplateBase" }
%"class.llvh::SmallVectorTemplateBase" = type { %"class.llvh::SmallVectorTemplateCommon" }
%"class.llvh::SmallVectorTemplateCommon" = type { %"class.llvh::SmallVectorBase" }
%"class.llvh::SmallVectorBase" = type { ptr, i32, i32 }
%"struct.llvh::SmallVectorStorage" = type { [2 x %"struct.llvh::AlignedCharArrayUnion"] }
%"struct.llvh::AlignedCharArrayUnion" = type { %"struct.llvh::AlignedCharArray" }
%"struct.llvh::AlignedCharArray" = type { [8 x i8] }
%"class.hermes::Instruction" = type <{ %"class.llvh::ilist_node_with_parent", %"class.hermes::Value", ptr, %"class.llvh::SmallVector.0", ptr, %"class.llvh::SMLoc", i32, [4 x i8] }>
%"class.llvh::ilist_node_with_parent" = type { %"class.llvh::ilist_node" }
%"class.llvh::ilist_node" = type { %"class.llvh::ilist_node_impl" }
%"class.llvh::ilist_node_impl" = type { %"class.llvh::ilist_node_base" }
%"class.llvh::ilist_node_base" = type { ptr, ptr }
%"class.llvh::SmallVector.0" = type { %"class.llvh::SmallVectorImpl.1", %"struct.llvh::SmallVectorStorage.4" }
%"class.llvh::SmallVectorImpl.1" = type { %"class.llvh::SmallVectorTemplateBase.2" }
%"class.llvh::SmallVectorTemplateBase.2" = type { %"class.llvh::SmallVectorTemplateCommon.3" }
%"class.llvh::SmallVectorTemplateCommon.3" = type { %"class.llvh::SmallVectorBase" }
%"struct.llvh::SmallVectorStorage.4" = type { [2 x %"struct.llvh::AlignedCharArrayUnion.5"] }
%"struct.llvh::AlignedCharArrayUnion.5" = type { %"struct.llvh::AlignedCharArray.6" }
%"struct.llvh::AlignedCharArray.6" = type { [16 x i8] }
%"class.llvh::SMLoc" = type { ptr }
%"class.hermes::BasicBlock" = type { %"class.llvh::ilist_node_with_parent.19", %"class.hermes::Value", %"class.llvh::iplist", ptr }
%"class.llvh::ilist_node_with_parent.19" = type { %"class.llvh::ilist_node.20" }
%"class.llvh::ilist_node.20" = type { %"class.llvh::ilist_node_impl.21" }
%"class.llvh::ilist_node_impl.21" = type { %"class.llvh::ilist_node_base" }
%"class.llvh::iplist" = type { %"class.llvh::iplist_impl" }
%"class.llvh::iplist_impl" = type { %"class.llvh::simple_ilist" }
%"class.llvh::simple_ilist" = type { %"class.llvh::ilist_sentinel" }
%"class.llvh::ilist_sentinel" = type { %"class.llvh::ilist_node_impl" }
%"class.llvh::ilist_iterator.144" = type { ptr }

; Function Attrs: mustprogress nounwind uwtable
define linkonce_odr hidden void @_ZN4llvh15ilist_node_baseILb0EE7setNextEPS1_(ptr noundef nonnull align 8 dereferenceable(16) %this, ptr noundef %Next) #0 comdat align 2 {
entry:
  %this.addr = alloca ptr, align 8
  %Next.addr = alloca ptr, align 8
  store ptr %this, ptr %this.addr, align 8
  store ptr %Next, ptr %Next.addr, align 8
  %this1 = load ptr, ptr %this.addr, align 8
  %0 = load ptr, ptr %Next.addr, align 8
  %Next2 = getelementptr inbounds %"class.llvh::ilist_node_base", ptr %this1, i32 0, i32 1
  store ptr %0, ptr %Next2, align 8
  ret void
}

; Function Attrs: mustprogress nounwind uwtable
define linkonce_odr hidden void @_ZN4llvh15ilist_node_baseILb0EE7setPrevEPS1_(ptr noundef nonnull align 8 dereferenceable(16) %this, ptr noundef %Prev) #0 comdat align 2 {
entry:
  %this.addr = alloca ptr, align 8
  %Prev.addr = alloca ptr, align 8
  store ptr %this, ptr %this.addr, align 8
  store ptr %Prev, ptr %Prev.addr, align 8
  %this1 = load ptr, ptr %this.addr, align 8
  %0 = load ptr, ptr %Prev.addr, align 8
  %Prev2 = getelementptr inbounds %"class.llvh::ilist_node_base", ptr %this1, i32 0, i32 0
  store ptr %0, ptr %Prev2, align 8
  ret void
}

; Function Attrs: mustprogress nounwind uwtable
define linkonce_odr hidden noundef ptr @_ZNK4llvh15ilist_node_baseILb0EE7getPrevEv(ptr noundef nonnull align 8 dereferenceable(16) %this) #0 comdat align 2 {
entry:
  %this.addr = alloca ptr, align 8
  store ptr %this, ptr %this.addr, align 8
  %this1 = load ptr, ptr %this.addr, align 8
  %Prev = getelementptr inbounds %"class.llvh::ilist_node_base", ptr %this1, i32 0, i32 0
  %0 = load ptr, ptr %Prev, align 8
  ret ptr %0
}

; Function Attrs: mustprogress nounwind uwtable
define linkonce_odr hidden noundef ptr @_ZNK4llvh15ilist_node_baseILb0EE7getNextEv(ptr noundef nonnull align 8 dereferenceable(16) %this) #0 comdat align 2 {
entry:
  %this.addr = alloca ptr, align 8
  store ptr %this, ptr %this.addr, align 8
  %this1 = load ptr, ptr %this.addr, align 8
  %Next = getelementptr inbounds %"class.llvh::ilist_node_base", ptr %this1, i32 0, i32 1
  %0 = load ptr, ptr %Next, align 8
  ret ptr %0
}

; Function Attrs: mustprogress nounwind uwtable
define linkonce_odr hidden void @_ZN4llvh10ilist_baseILb0EE10removeImplERNS_15ilist_node_baseILb0EEE(ptr noundef nonnull align 8 dereferenceable(16) %N) #0 comdat align 2 {
entry:
  %N.addr = alloca ptr, align 8
  %Prev = alloca ptr, align 8
  %Next = alloca ptr, align 8
  store ptr %N, ptr %N.addr, align 8
  %0 = load ptr, ptr %N.addr, align 8
  %call = call noundef ptr @_ZNK4llvh15ilist_node_baseILb0EE7getPrevEv(ptr noundef nonnull align 8 dereferenceable(16) %0)
  store ptr %call, ptr %Prev, align 8
  %1 = load ptr, ptr %N.addr, align 8
  %call1 = call noundef ptr @_ZNK4llvh15ilist_node_baseILb0EE7getNextEv(ptr noundef nonnull align 8 dereferenceable(16) %1)
  store ptr %call1, ptr %Next, align 8
  %2 = load ptr, ptr %Next, align 8
  %3 = load ptr, ptr %Prev, align 8
  call void @_ZN4llvh15ilist_node_baseILb0EE7setPrevEPS1_(ptr noundef nonnull align 8 dereferenceable(16) %2, ptr noundef %3)
  %4 = load ptr, ptr %Prev, align 8
  %5 = load ptr, ptr %Next, align 8
  call void @_ZN4llvh15ilist_node_baseILb0EE7setNextEPS1_(ptr noundef nonnull align 8 dereferenceable(16) %4, ptr noundef %5)
  %6 = load ptr, ptr %N.addr, align 8
  call void @_ZN4llvh15ilist_node_baseILb0EE7setPrevEPS1_(ptr noundef nonnull align 8 dereferenceable(16) %6, ptr noundef null)
  %7 = load ptr, ptr %N.addr, align 8
  call void @_ZN4llvh15ilist_node_baseILb0EE7setNextEPS1_(ptr noundef nonnull align 8 dereferenceable(16) %7, ptr noundef null)
  ret void
}

; Function Attrs: mustprogress nounwind uwtable
define linkonce_odr hidden noundef ptr @_ZN4llvh12ilist_detail10NodeAccess11getValuePtrINS0_12node_optionsIN6hermes11InstructionELb0ELb0EvEEEENT_7pointerEPNS_15ilist_node_implIS7_EE(ptr noundef %N) #0 comdat align 2 {
entry:
  %N.addr = alloca ptr, align 8
  store ptr %N, ptr %N.addr, align 8
  %0 = load ptr, ptr %N.addr, align 8
  ret ptr %0
}

; Function Attrs: mustprogress nounwind uwtable
define linkonce_odr hidden noundef ptr @_ZN4llvh15ilist_node_implINS_12ilist_detail12node_optionsIN6hermes11InstructionELb0ELb0EvEEE7getNextEv(ptr noundef nonnull align 8 dereferenceable(16) %this) #0 comdat align 2 {
entry:
  %this.addr = alloca ptr, align 8
  store ptr %this, ptr %this.addr, align 8
  %this1 = load ptr, ptr %this.addr, align 8
  %call = call noundef ptr @_ZNK4llvh15ilist_node_baseILb0EE7getNextEv(ptr noundef nonnull align 8 dereferenceable(16) %this1)
  ret ptr %call
}

; Function Attrs: mustprogress nounwind uwtable
define linkonce_odr hidden void @_ZN4llvh10ilist_baseILb0EE6removeINS_15ilist_node_implINS_12ilist_detail12node_optionsIN6hermes11InstructionELb0ELb0EvEEEEEEvRT_(ptr noundef nonnull align 8 dereferenceable(16) %N) #0 comdat align 2 {
entry:
  %N.addr = alloca ptr, align 8
  store ptr %N, ptr %N.addr, align 8
  %0 = load ptr, ptr %N.addr, align 8
  call void @_ZN4llvh10ilist_baseILb0EE10removeImplERNS_15ilist_node_baseILb0EEE(ptr noundef nonnull align 8 dereferenceable(16) %0)
  ret void
}

; Function Attrs: mustprogress nounwind uwtable
define linkonce_odr hidden noundef ptr @_ZN4llvh12ilist_detail18SpecificNodeAccessINS0_12node_optionsIN6hermes11InstructionELb0ELb0EvEEE11getValuePtrEPNS_15ilist_node_implIS5_EE(ptr noundef %N) #0 comdat align 2 {
entry:
  %N.addr = alloca ptr, align 8
  store ptr %N, ptr %N.addr, align 8
  %0 = load ptr, ptr %N.addr, align 8
  %call = call noundef ptr @_ZN4llvh12ilist_detail10NodeAccess11getValuePtrINS0_12node_optionsIN6hermes11InstructionELb0ELb0EvEEEENT_7pointerEPNS_15ilist_node_implIS7_EE(ptr noundef %0)
  ret ptr %call
}

; Function Attrs: mustprogress nounwind uwtable
define linkonce_odr hidden noundef nonnull align 8 dereferenceable(8) ptr @_ZN4llvh14ilist_iteratorINS_12ilist_detail12node_optionsIN6hermes11InstructionELb0ELb0EvEELb0ELb0EEppEv(ptr noundef nonnull align 8 dereferenceable(8) %this) #0 comdat align 2 {
entry:
  %this.addr = alloca ptr, align 8
  store ptr %this, ptr %this.addr, align 8
  %this1 = load ptr, ptr %this.addr, align 8
  %NodePtr = getelementptr inbounds %"class.llvh::ilist_iterator.144", ptr %this1, i32 0, i32 0
  %0 = load ptr, ptr %NodePtr, align 8
  %call = call noundef ptr @_ZN4llvh15ilist_node_implINS_12ilist_detail12node_optionsIN6hermes11InstructionELb0ELb0EvEEE7getNextEv(ptr noundef nonnull align 8 dereferenceable(16) %0)
  %NodePtr2 = getelementptr inbounds %"class.llvh::ilist_iterator.144", ptr %this1, i32 0, i32 0
  store ptr %call, ptr %NodePtr2, align 8
  ret ptr %this1
}

; Function Attrs: mustprogress nounwind uwtable
define linkonce_odr hidden void @_ZN4llvh12simple_ilistIN6hermes11InstructionEJEE6removeERS2_(ptr noundef nonnull align 8 dereferenceable(16) %this, ptr noundef nonnull align 8 dereferenceable(132) %N) #0 comdat align 2 {
entry:
  %this.addr = alloca ptr, align 8
  %N.addr = alloca ptr, align 8
  store ptr %this, ptr %this.addr, align 8
  store ptr %N, ptr %N.addr, align 8
  %0 = load ptr, ptr %N.addr, align 8
  %call = call noundef ptr @_ZN4llvh12ilist_detail18SpecificNodeAccessINS0_12node_optionsIN6hermes11InstructionELb0ELb0EvEEE10getNodePtrEPS4_(ptr noundef %0)
  call void @_ZN4llvh10ilist_baseILb0EE6removeINS_15ilist_node_implINS_12ilist_detail12node_optionsIN6hermes11InstructionELb0ELb0EvEEEEEEvRT_(ptr noundef nonnull align 8 dereferenceable(16) %call)
  ret void
}

; Function Attrs: mustprogress nounwind uwtable
define linkonce_odr hidden void @_ZN4llvh21ilist_callback_traitsIN6hermes11InstructionEE18removeNodeFromListEPS2_(ptr noundef nonnull align 1 dereferenceable(1) %this, ptr noundef %0) #0 comdat align 2 {
entry:
  %this.addr = alloca ptr, align 8
  %.addr = alloca ptr, align 8
  store ptr %this, ptr %this.addr, align 8
  store ptr %0, ptr %.addr, align 8
  ret void
}

; Function Attrs: mustprogress nounwind uwtable
define linkonce_odr hidden noundef nonnull align 8 dereferenceable(132) ptr @_ZNK4llvh14ilist_iteratorINS_12ilist_detail12node_optionsIN6hermes11InstructionELb0ELb0EvEELb0ELb0EEdeEv(ptr noundef nonnull align 8 dereferenceable(8) %this) #0 comdat align 2 {
entry:
  %this.addr = alloca ptr, align 8
  store ptr %this, ptr %this.addr, align 8
  %this1 = load ptr, ptr %this.addr, align 8
  %NodePtr = getelementptr inbounds %"class.llvh::ilist_iterator.144", ptr %this1, i32 0, i32 0
  %0 = load ptr, ptr %NodePtr, align 8
  %call = call noundef ptr @_ZN4llvh12ilist_detail18SpecificNodeAccessINS0_12node_optionsIN6hermes11InstructionELb0ELb0EvEEE11getValuePtrEPNS_15ilist_node_implIS5_EE(ptr noundef %0)
  ret ptr %call
}

; Function Attrs: mustprogress nounwind uwtable
define linkonce_odr hidden ptr @_ZN4llvh14ilist_iteratorINS_12ilist_detail12node_optionsIN6hermes11InstructionELb0ELb0EvEELb0ELb0EEppEi(ptr noundef nonnull align 8 dereferenceable(8) %this, i32 noundef %0) #0 comdat align 2 {
entry:
  %retval = alloca %"class.llvh::ilist_iterator.144", align 8
  %this.addr = alloca ptr, align 8
  %.addr = alloca i32, align 4
  store ptr %this, ptr %this.addr, align 8
  store i32 %0, ptr %.addr, align 4
  %this1 = load ptr, ptr %this.addr, align 8
  call void @llvm.memcpy.p0.p0.i64(ptr align 8 %retval, ptr align 8 %this1, i64 8, i1 false)
  %call = call noundef nonnull align 8 dereferenceable(8) ptr @_ZN4llvh14ilist_iteratorINS_12ilist_detail12node_optionsIN6hermes11InstructionELb0ELb0EvEELb0ELb0EEppEv(ptr noundef nonnull align 8 dereferenceable(8) %this1)
  %coerce.dive = getelementptr inbounds %"class.llvh::ilist_iterator.144", ptr %retval, i32 0, i32 0
  %1 = load ptr, ptr %coerce.dive, align 8
  ret ptr %1
}

; Function Attrs: mustprogress nounwind uwtable
define linkonce_odr hidden noundef ptr @_ZN4llvh12ilist_detail10NodeAccess10getNodePtrINS0_12node_optionsIN6hermes11InstructionELb0ELb0EvEEEEPNS_15ilist_node_implIT_EENS8_7pointerE(ptr noundef %N) #0 comdat align 2 {
entry:
  %N.addr = alloca ptr, align 8
  store ptr %N, ptr %N.addr, align 8
  %0 = load ptr, ptr %N.addr, align 8
  ret ptr %0
}

; Function Attrs: mustprogress nounwind uwtable
define linkonce_odr hidden noundef ptr @_ZN4llvh11iplist_implINS_12simple_ilistIN6hermes11InstructionEJEEENS_12ilist_traitsIS3_EEE6removeERNS_14ilist_iteratorINS_12ilist_detail12node_optionsIS3_Lb0ELb0EvEELb0ELb0EEE(ptr noundef nonnull align 8 dereferenceable(16) %this, ptr noundef nonnull align 8 dereferenceable(8) %IT) #0 comdat align 2 {
entry:
  %this.addr = alloca ptr, align 8
  %IT.addr = alloca ptr, align 8
  %Node = alloca ptr, align 8
  %ref.tmp = alloca %"class.llvh::ilist_iterator.144", align 8
  store ptr %this, ptr %this.addr, align 8
  store ptr %IT, ptr %IT.addr, align 8
  %this1 = load ptr, ptr %this.addr, align 8
  %0 = load ptr, ptr %IT.addr, align 8
  %call = call ptr @_ZN4llvh14ilist_iteratorINS_12ilist_detail12node_optionsIN6hermes11InstructionELb0ELb0EvEELb0ELb0EEppEi(ptr noundef nonnull align 8 dereferenceable(8) %0, i32 noundef 0)
  %coerce.dive = getelementptr inbounds %"class.llvh::ilist_iterator.144", ptr %ref.tmp, i32 0, i32 0
  store ptr %call, ptr %coerce.dive, align 8
  %call2 = call noundef nonnull align 8 dereferenceable(132) ptr @_ZNK4llvh14ilist_iteratorINS_12ilist_detail12node_optionsIN6hermes11InstructionELb0ELb0EvEELb0ELb0EEdeEv(ptr noundef nonnull align 8 dereferenceable(8) %ref.tmp)
  store ptr %call2, ptr %Node, align 8
  %1 = load ptr, ptr %Node, align 8
  call void @_ZN4llvh21ilist_callback_traitsIN6hermes11InstructionEE18removeNodeFromListEPS2_(ptr noundef nonnull align 1 dereferenceable(1) %this1, ptr noundef %1)
  %2 = load ptr, ptr %Node, align 8
  call void @_ZN4llvh12simple_ilistIN6hermes11InstructionEJEE6removeERS2_(ptr noundef nonnull align 8 dereferenceable(16) %this1, ptr noundef nonnull align 8 dereferenceable(132) %2)
  %3 = load ptr, ptr %Node, align 8
  ret ptr %3
}

; Function Attrs: mustprogress nounwind uwtable
define linkonce_odr hidden noundef ptr @_ZN4llvh12ilist_detail18SpecificNodeAccessINS0_12node_optionsIN6hermes11InstructionELb0ELb0EvEEE10getNodePtrEPS4_(ptr noundef %N) #0 comdat align 2 {
entry:
  %N.addr = alloca ptr, align 8
  store ptr %N, ptr %N.addr, align 8
  %0 = load ptr, ptr %N.addr, align 8
  %call = call noundef ptr @_ZN4llvh12ilist_detail10NodeAccess10getNodePtrINS0_12node_optionsIN6hermes11InstructionELb0ELb0EvEEEEPNS_15ilist_node_implIT_EENS8_7pointerE(ptr noundef %0)
  ret ptr %call
}

; Function Attrs: mustprogress nounwind uwtable
define linkonce_odr hidden noundef ptr @_ZN4llvh11iplist_implINS_12simple_ilistIN6hermes11InstructionEJEEENS_12ilist_traitsIS3_EEE6removeERKNS_14ilist_iteratorINS_12ilist_detail12node_optionsIS3_Lb0ELb0EvEELb0ELb0EEE(ptr noundef nonnull align 8 dereferenceable(16) %this, ptr noundef nonnull align 8 dereferenceable(8) %IT) #0 comdat align 2 {
entry:
  %this.addr = alloca ptr, align 8
  %IT.addr = alloca ptr, align 8
  %MutIt = alloca %"class.llvh::ilist_iterator.144", align 8
  store ptr %this, ptr %this.addr, align 8
  store ptr %IT, ptr %IT.addr, align 8
  %this1 = load ptr, ptr %this.addr, align 8
  %0 = load ptr, ptr %IT.addr, align 8
  call void @llvm.memcpy.p0.p0.i64(ptr align 8 %MutIt, ptr align 8 %0, i64 8, i1 false)
  %call = call noundef ptr @_ZN4llvh11iplist_implINS_12simple_ilistIN6hermes11InstructionEJEEENS_12ilist_traitsIS3_EEE6removeERNS_14ilist_iteratorINS_12ilist_detail12node_optionsIS3_Lb0ELb0EvEELb0ELb0EEE(ptr noundef nonnull align 8 dereferenceable(16) %this1, ptr noundef nonnull align 8 dereferenceable(8) %MutIt)
  ret ptr %call
}

; Function Attrs: mustprogress nounwind uwtable
define linkonce_odr hidden void @_ZN4llvh14ilist_iteratorINS_12ilist_detail12node_optionsIN6hermes11InstructionELb0ELb0EvEELb0ELb0EEC2EPS4_(ptr noundef nonnull align 8 dereferenceable(8) %this, ptr noundef %NP) unnamed_addr #0 comdat align 2 {
entry:
  %this.addr = alloca ptr, align 8
  %NP.addr = alloca ptr, align 8
  store ptr %this, ptr %this.addr, align 8
  store ptr %NP, ptr %NP.addr, align 8
  %this1 = load ptr, ptr %this.addr, align 8
  %NodePtr = getelementptr inbounds %"class.llvh::ilist_iterator.144", ptr %this1, i32 0, i32 0
  %0 = load ptr, ptr %NP.addr, align 8
  %call = call noundef ptr @_ZN4llvh12ilist_detail18SpecificNodeAccessINS0_12node_optionsIN6hermes11InstructionELb0ELb0EvEEE10getNodePtrEPS4_(ptr noundef %0)
  store ptr %call, ptr %NodePtr, align 8
  ret void
}

; Function Attrs: mustprogress nounwind uwtable
define linkonce_odr hidden noundef ptr @_ZN4llvh11iplist_implINS_12simple_ilistIN6hermes11InstructionEJEEENS_12ilist_traitsIS3_EEE6removeEPS3_(ptr noundef nonnull align 8 dereferenceable(16) %this, ptr noundef %IT) #0 comdat align 2 {
entry:
  %this.addr = alloca ptr, align 8
  %IT.addr = alloca ptr, align 8
  %ref.tmp = alloca %"class.llvh::ilist_iterator.144", align 8
  store ptr %this, ptr %this.addr, align 8
  store ptr %IT, ptr %IT.addr, align 8
  %this1 = load ptr, ptr %this.addr, align 8
  %0 = load ptr, ptr %IT.addr, align 8
  call void @_ZN4llvh14ilist_iteratorINS_12ilist_detail12node_optionsIN6hermes11InstructionELb0ELb0EvEELb0ELb0EEC2EPS4_(ptr noundef nonnull align 8 dereferenceable(8) %ref.tmp, ptr noundef %0)
  %call = call noundef ptr @_ZN4llvh11iplist_implINS_12simple_ilistIN6hermes11InstructionEJEEENS_12ilist_traitsIS3_EEE6removeERKNS_14ilist_iteratorINS_12ilist_detail12node_optionsIS3_Lb0ELb0EvEELb0ELb0EEE(ptr noundef nonnull align 8 dereferenceable(16) %this1, ptr noundef nonnull align 8 dereferenceable(8) %ref.tmp)
  ret ptr %call
}

; Function Attrs: mustprogress nounwind uwtable
define hidden void @_ZN6hermes10BasicBlock6removeEPNS_11InstructionE(ptr noundef nonnull align 8 dereferenceable(80) %this, ptr noundef %I) #0 align 2 {
entry:
  %this.addr = alloca ptr, align 8
  %I.addr = alloca ptr, align 8
  store ptr %this, ptr %this.addr, align 8
  store ptr %I, ptr %I.addr, align 8
  %this1 = load ptr, ptr %this.addr, align 8
  %InstList = getelementptr inbounds %"class.hermes::BasicBlock", ptr %this1, i32 0, i32 2
  %0 = load ptr, ptr %I.addr, align 8
  %call = call noundef ptr @_ZN4llvh11iplist_implINS_12simple_ilistIN6hermes11InstructionEJEEENS_12ilist_traitsIS3_EEE6removeEPS3_(ptr noundef nonnull align 8 dereferenceable(16) %InstList, ptr noundef %0)
  ret void
}

; Function Attrs: mustprogress nounwind uwtable
define linkonce_odr hidden noundef ptr @_ZNK6hermes11Instruction9getParentEv(ptr noundef nonnull align 8 dereferenceable(132) %this) #0 comdat align 2 {
entry:
  %this.addr = alloca ptr, align 8
  store ptr %this, ptr %this.addr, align 8
  %this1 = load ptr, ptr %this.addr, align 8
  %Parent = getelementptr inbounds %"class.hermes::Instruction", ptr %this1, i32 0, i32 2
  %0 = load ptr, ptr %Parent, align 8
  ret ptr %0
}

; Function Attrs: mustprogress nounwind uwtable
define hidden void @_ZN6hermes11Instruction16removeFromParentEv(ptr noundef nonnull align 8 dereferenceable(132) %this) #0 align 2 {
entry:
  %this.addr = alloca ptr, align 8
  store ptr %this, ptr %this.addr, align 8
  %this1 = load ptr, ptr %this.addr, align 8
  %call = call noundef ptr @_ZNK6hermes11Instruction9getParentEv(ptr noundef nonnull align 8 dereferenceable(132) %this1)
  call void @_ZN6hermes10BasicBlock6removeEPNS_11InstructionE(ptr noundef nonnull align 8 dereferenceable(80) %call, ptr noundef %this1)
  ret void
}