; Function Attrs: mustprogress nofree norecurse nosync nounwind willreturn memory(write, argmem: readwrite, inaccessiblemem: none) uwtable
define hidden void @_ZN6hermes11Instruction16removeFromParentEv(ptr nocapture noundef nonnull align 8 dereferenceable(132) %this) local_unnamed_addr #7 align 2 {
entry:
  %Next.i.i.i.i.i.i.i.i = getelementptr inbounds i8, ptr %this, i64 8
  %0 = load ptr, ptr %Next.i.i.i.i.i.i.i.i, align 8
  %1 = load ptr, ptr %this, align 8
  store ptr %1, ptr %0, align 8
  %Next2.i.i.i.i.i.i.i.i = getelementptr inbounds i8, ptr %1, i64 8
  store ptr %0, ptr %Next2.i.i.i.i.i.i.i.i, align 8
  tail call void @llvm.memset.p0.i64(ptr noundef nonnull align 8 dereferenceable(16) %this, i8 0, i64 16, i1 false)
  ret void
}